; Function Attrs: mustprogress uwtable
define dso_local void @_ZN11StringUtils12split_stringERKNSt7__cxx1112basic_stringIcSt11char_traitsIcESaIcEEERSt6vectorIS5_SaIS5_EES5_(ptr noundef nonnull align 8 dereferenceable(32) %0, ptr noundef nonnull align 8 dereferenceable(24) %1, ptr noundef %2) local_unnamed_addr #5 align 2 personality ptr @__gxx_personality_v0 {
  %4 = alloca %"class.std::__cxx11::basic_string", align 8
  %5 = getelementptr inbounds nuw i8, ptr %1, i64 8
  %6 = getelementptr inbounds nuw i8, ptr %1, i64 16
  br label %7

7:                                                ; preds = %.backedge, %3
  %.2 = phi i64 [ 0, %3 ], [ %.2.be, %.backedge ]
  %8 = call noundef nonnull align 1 dereferenceable(1) ptr @_ZNKSt7__cxx1112basic_stringIcSt11char_traitsIcESaIcEEixEm(ptr noundef nonnull align 8 dereferenceable(32) %0, i64 noundef %.2) #18
  %9 = load i8, ptr %8, align 1
  switch i8 %9, label %_ZN11StringUtils13ignore_spacesERKNSt7__cxx1112basic_stringIcSt11char_traitsIcESaIcEEERm.exit [
    i8 32, label %.backedge
    i8 9, label %.backedge
    i8 10, label %.backedge
  ]

.backedge:                                        ; preds = %7, %7, %7, %34
  %.2.be.in = phi i64 [ %.010.i, %34 ], [ %.2, %7 ], [ %.2, %7 ], [ %.2, %7 ]
  %.2.be = add i64 %.2.be.in, 1
  br label %7, !llvm.loop !5

_ZN11StringUtils13ignore_spacesERKNSt7__cxx1112basic_stringIcSt11char_traitsIcESaIcEEERm.exit: ; preds = %7
  %10 = call noundef zeroext i1 @_ZNKSt7__cxx1112basic_stringIcSt11char_traitsIcESaIcEE5emptyEv(ptr noundef nonnull align 8 dereferenceable(32) %0) #18
  br i1 %10, label %_ZN11StringUtils13find_any_charERKNSt7__cxx1112basic_stringIcSt11char_traitsIcESaIcEEEmS7_.exit, label %11

11:                                               ; preds = %_ZN11StringUtils13ignore_spacesERKNSt7__cxx1112basic_stringIcSt11char_traitsIcESaIcEEERm.exit
  %12 = call noundef zeroext i1 @_ZNKSt7__cxx1112basic_stringIcSt11char_traitsIcESaIcEE5emptyEv(ptr noundef nonnull align 8 dereferenceable(32) %2) #18
  br i1 %12, label %_ZN11StringUtils13find_any_charERKNSt7__cxx1112basic_stringIcSt11char_traitsIcESaIcEEEmS7_.exit, label %.preheader.i

.preheader.i:                                     ; preds = %11
  %13 = call noundef i64 @_ZNKSt7__cxx1112basic_stringIcSt11char_traitsIcESaIcEE6lengthEv(ptr noundef nonnull align 8 dereferenceable(32) %0) #18
  %14 = icmp ult i64 %.2, %13
  br i1 %14, label %.lr.ph.i, label %_ZN11StringUtils13find_any_charERKNSt7__cxx1112basic_stringIcSt11char_traitsIcESaIcEEEmS7_.exit

.lr.ph.i:                                         ; preds = %.preheader.i, %18
  %.011.i = phi i64 [ %19, %18 ], [ %.2, %.preheader.i ]
  %15 = call noundef nonnull align 1 dereferenceable(1) ptr @_ZNKSt7__cxx1112basic_stringIcSt11char_traitsIcESaIcEEixEm(ptr noundef nonnull align 8 dereferenceable(32) %0, i64 noundef %.011.i) #18
  %16 = load i8, ptr %15, align 1
  %17 = call noundef i64 @_ZNKSt7__cxx1112basic_stringIcSt11char_traitsIcESaIcEE4findEcm(ptr noundef nonnull align 8 dereferenceable(32) %2, i8 noundef signext %16, i64 noundef 0) #18
  %.not.i = icmp eq i64 %17, -1
  br i1 %.not.i, label %18, label %_ZN11StringUtils13find_any_charERKNSt7__cxx1112basic_stringIcSt11char_traitsIcESaIcEEEmS7_.exit

18:                                               ; preds = %.lr.ph.i
  %19 = add nuw i64 %.011.i, 1
  %20 = call noundef i64 @_ZNKSt7__cxx1112basic_stringIcSt11char_traitsIcESaIcEE6lengthEv(ptr noundef nonnull align 8 dereferenceable(32) %0) #18
  %21 = icmp ult i64 %19, %20
  br i1 %21, label %.lr.ph.i, label %_ZN11StringUtils13find_any_charERKNSt7__cxx1112basic_stringIcSt11char_traitsIcESaIcEEEmS7_.exit, !llvm.loop !10

_ZN11StringUtils13find_any_charERKNSt7__cxx1112basic_stringIcSt11char_traitsIcESaIcEEEmS7_.exit: ; preds = %.lr.ph.i, %18, %_ZN11StringUtils13ignore_spacesERKNSt7__cxx1112basic_stringIcSt11char_traitsIcESaIcEEERm.exit, %11, %.preheader.i
  %.010.i = phi i64 [ -1, %11 ], [ -1, %_ZN11StringUtils13ignore_spacesERKNSt7__cxx1112basic_stringIcSt11char_traitsIcESaIcEEERm.exit ], [ -1, %.preheader.i ], [ -1, %18 ], [ %.011.i, %.lr.ph.i ]
  %22 = sub i64 %.010.i, %.2
  call void @_ZNKSt7__cxx1112basic_stringIcSt11char_traitsIcESaIcEE6substrEmm(ptr dead_on_unwind nonnull writable sret(%"class.std::__cxx11::basic_string") align 8 %4, ptr noundef nonnull align 8 dereferenceable(32) %0, i64 noundef %.2, i64 noundef %22)
  %23 = call noundef zeroext i1 @_ZNKSt7__cxx1112basic_stringIcSt11char_traitsIcESaIcEE5emptyEv(ptr noundef nonnull align 8 dereferenceable(32) %4) #18
  br i1 %23, label %_ZNSt6vectorINSt7__cxx1112basic_stringIcSt11char_traitsIcESaIcEEESaIS5_EE9push_backERKS5_.exit, label %24

24:                                               ; preds = %_ZN11StringUtils13find_any_charERKNSt7__cxx1112basic_stringIcSt11char_traitsIcESaIcEEEmS7_.exit
  %25 = load ptr, ptr %5, align 8
  %26 = load ptr, ptr %6, align 8
  %.not.i9 = icmp eq ptr %25, %26
  br i1 %.not.i9, label %30, label %27

27:                                               ; preds = %24
  invoke void @_ZNSt7__cxx1112basic_stringIcSt11char_traitsIcESaIcEEC1ERKS4_(ptr noundef nonnull align 8 dereferenceable(32) %25, ptr noundef nonnull align 8 dereferenceable(32) %4)
          to label %.noexc unwind label %31

.noexc:                                           ; preds = %27
  %28 = load ptr, ptr %5, align 8
  %29 = getelementptr inbounds nuw i8, ptr %28, i64 32
  store ptr %29, ptr %5, align 8
  br label %_ZNSt6vectorINSt7__cxx1112basic_stringIcSt11char_traitsIcESaIcEEESaIS5_EE9push_backERKS5_.exit

30:                                               ; preds = %24
  invoke void @_ZNSt6vectorINSt7__cxx1112basic_stringIcSt11char_traitsIcESaIcEEESaIS5_EE17_M_realloc_insertIJRKS5_EEEvN9__gnu_cxx17__normal_iteratorIPS5_S7_EEDpOT_(ptr noundef nonnull align 8 dereferenceable(24) %1, ptr %25, ptr noundef nonnull align 8 dereferenceable(32) %4)
          to label %_ZNSt6vectorINSt7__cxx1112basic_stringIcSt11char_traitsIcESaIcEEESaIS5_EE9push_backERKS5_.exit unwind label %31

31:                                               ; preds = %30, %27
  %32 = landingpad { ptr, i32 }
          cleanup
  call void @_ZNSt7__cxx1112basic_stringIcSt11char_traitsIcESaIcEED1Ev(ptr noundef nonnull align 8 dereferenceable(32) %4) #18
  resume { ptr, i32 } %32

_ZNSt6vectorINSt7__cxx1112basic_stringIcSt11char_traitsIcESaIcEEESaIS5_EE9push_backERKS5_.exit: ; preds = %.noexc, %30, %_ZN11StringUtils13find_any_charERKNSt7__cxx1112basic_stringIcSt11char_traitsIcESaIcEEEmS7_.exit
  %33 = icmp eq i64 %.010.i, -1
  br i1 %33, label %35, label %34

34:                                               ; preds = %_ZNSt6vectorINSt7__cxx1112basic_stringIcSt11char_traitsIcESaIcEEESaIS5_EE9push_backERKS5_.exit
  call void @_ZNSt7__cxx1112basic_stringIcSt11char_traitsIcESaIcEED1Ev(ptr noundef nonnull align 8 dereferenceable(32) %4) #18
  br label %.backedge

35:                                               ; preds = %_ZNSt6vectorINSt7__cxx1112basic_stringIcSt11char_traitsIcESaIcEEESaIS5_EE9push_backERKS5_.exit
  call void @_ZNSt7__cxx1112basic_stringIcSt11char_traitsIcESaIcEED1Ev(ptr noundef nonnull align 8 dereferenceable(32) %4) #18
  ret void
}